target datalayout = "e-m:e-p270:32:32-p271:32:32-p272:64:64-i64:64-i128:128-f80:128-n8:16:32:64-S128"
target triple = "x86_64-pc-linux-gnu"

; Function Attrs: nounwind uwtable
define zeroext i16 @lv_atan2(i32 noundef %0, i32 noundef %1) #0 {
  %3 = alloca i32, align 4
  %4 = alloca i32, align 4
  %5 = alloca i8, align 1
  %6 = alloca i8, align 1
  %7 = alloca i8, align 1
  %8 = alloca i32, align 4
  %9 = alloca i32, align 4
  %10 = alloca i32, align 4
  store i32 %0, ptr %3, align 4, !tbaa !7
  store i32 %1, ptr %4, align 4, !tbaa !7
  call void @llvm.lifetime.start.p0(i64 1, ptr %5) #2
  call void @llvm.lifetime.start.p0(i64 1, ptr %6) #2
  call void @llvm.lifetime.start.p0(i64 1, ptr %7) #2
  call void @llvm.lifetime.start.p0(i64 4, ptr %8) #2
  call void @llvm.lifetime.start.p0(i64 4, ptr %9) #2
  call void @llvm.lifetime.start.p0(i64 4, ptr %10) #2
  store i8 0, ptr %5, align 1, !tbaa !20
  %11 = load i32, ptr %3, align 4, !tbaa !7
  %12 = icmp slt i32 %11, 0
  br i1 %12, label %13, label %20

13:                                               ; preds = %2
  %14 = load i8, ptr %5, align 1, !tbaa !20
  %15 = zext i8 %14 to i32
  %16 = add nsw i32 %15, 1
  %17 = trunc i32 %16 to i8
  store i8 %17, ptr %5, align 1, !tbaa !20
  %18 = load i32, ptr %3, align 4, !tbaa !7
  %19 = sub nsw i32 0, %18
  store i32 %19, ptr %3, align 4, !tbaa !7
  br label %20

20:                                               ; preds = %13, %2
  %21 = load i32, ptr %3, align 4, !tbaa !7
  store i32 %21, ptr %9, align 4, !tbaa !7
  %22 = load i32, ptr %4, align 4, !tbaa !7
  %23 = icmp slt i32 %22, 0
  br i1 %23, label %24, label %31

24:                                               ; preds = %20
  %25 = load i8, ptr %5, align 1, !tbaa !20
  %26 = zext i8 %25 to i32
  %27 = add nsw i32 %26, 2
  %28 = trunc i32 %27 to i8
  store i8 %28, ptr %5, align 1, !tbaa !20
  %29 = load i32, ptr %4, align 4, !tbaa !7
  %30 = sub nsw i32 0, %29
  store i32 %30, ptr %4, align 4, !tbaa !7
  br label %31

31:                                               ; preds = %24, %20
  %32 = load i32, ptr %4, align 4, !tbaa !7
  store i32 %32, ptr %10, align 4, !tbaa !7
  %33 = load i32, ptr %9, align 4, !tbaa !7
  %34 = load i32, ptr %10, align 4, !tbaa !7
  %35 = icmp ugt i32 %33, %34
  br i1 %35, label %36, label %45

36:                                               ; preds = %31
  %37 = load i32, ptr %10, align 4, !tbaa !7
  %38 = mul i32 %37, 45
  %39 = load i32, ptr %9, align 4, !tbaa !7
  %40 = udiv i32 %38, %39
  store i32 %40, ptr %8, align 4, !tbaa !7
  %41 = load i8, ptr %5, align 1, !tbaa !20
  %42 = zext i8 %41 to i32
  %43 = add nsw i32 %42, 16
  %44 = trunc i32 %43 to i8
  store i8 %44, ptr %5, align 1, !tbaa !20
  br label %50

45:                                               ; preds = %31
  %46 = load i32, ptr %9, align 4, !tbaa !7
  %47 = mul i32 %46, 45
  %48 = load i32, ptr %10, align 4, !tbaa !7
  %49 = udiv i32 %47, %48
  store i32 %49, ptr %8, align 4, !tbaa !7
  br label %50

50:                                               ; preds = %45, %36
  store i8 0, ptr %7, align 1, !tbaa !20
  %51 = load i32, ptr %8, align 4, !tbaa !7
  %52 = trunc i32 %51 to i8
  store i8 %52, ptr %6, align 1, !tbaa !20
  %53 = load i8, ptr %6, align 1, !tbaa !20
  %54 = zext i8 %53 to i32
  %55 = icmp sgt i32 %54, 22
  br i1 %55, label %56, label %85

56:                                               ; preds = %50
  %57 = load i8, ptr %6, align 1, !tbaa !20
  %58 = zext i8 %57 to i32
  %59 = icmp sle i32 %58, 44
  br i1 %59, label %60, label %63

60:                                               ; preds = %56
  %61 = load i8, ptr %7, align 1, !tbaa !20
  %62 = add i8 %61, 1
  store i8 %62, ptr %7, align 1, !tbaa !20
  br label %63

63:                                               ; preds = %60, %56
  %64 = load i8, ptr %6, align 1, !tbaa !20
  %65 = zext i8 %64 to i32
  %66 = icmp sle i32 %65, 41
  br i1 %66, label %67, label %70

67:                                               ; preds = %63
  %68 = load i8, ptr %7, align 1, !tbaa !20
  %69 = add i8 %68, 1
  store i8 %69, ptr %7, align 1, !tbaa !20
  br label %70

70:                                               ; preds = %67, %63
  %71 = load i8, ptr %6, align 1, !tbaa !20
  %72 = zext i8 %71 to i32
  %73 = icmp sle i32 %72, 37
  br i1 %73, label %74, label %77

74:                                               ; preds = %70
  %75 = load i8, ptr %7, align 1, !tbaa !20
  %76 = add i8 %75, 1
  store i8 %76, ptr %7, align 1, !tbaa !20
  br label %77

77:                                               ; preds = %74, %70
  %78 = load i8, ptr %6, align 1, !tbaa !20
  %79 = zext i8 %78 to i32
  %80 = icmp sle i32 %79, 32
  br i1 %80, label %81, label %84

81:                                               ; preds = %77
  %82 = load i8, ptr %7, align 1, !tbaa !20
  %83 = add i8 %82, 1
  store i8 %83, ptr %7, align 1, !tbaa !20
  br label %84

84:                                               ; preds = %81, %77
  br label %114

85:                                               ; preds = %50
  %86 = load i8, ptr %6, align 1, !tbaa !20
  %87 = zext i8 %86 to i32
  %88 = icmp sge i32 %87, 2
  br i1 %88, label %89, label %92

89:                                               ; preds = %85
  %90 = load i8, ptr %7, align 1, !tbaa !20
  %91 = add i8 %90, 1
  store i8 %91, ptr %7, align 1, !tbaa !20
  br label %92

92:                                               ; preds = %89, %85
  %93 = load i8, ptr %6, align 1, !tbaa !20
  %94 = zext i8 %93 to i32
  %95 = icmp sge i32 %94, 6
  br i1 %95, label %96, label %99

96:                                               ; preds = %92
  %97 = load i8, ptr %7, align 1, !tbaa !20
  %98 = add i8 %97, 1
  store i8 %98, ptr %7, align 1, !tbaa !20
  br label %99

99:                                               ; preds = %96, %92
  %100 = load i8, ptr %6, align 1, !tbaa !20
  %101 = zext i8 %100 to i32
  %102 = icmp sge i32 %101, 10
  br i1 %102, label %103, label %106

103:                                              ; preds = %99
  %104 = load i8, ptr %7, align 1, !tbaa !20
  %105 = add i8 %104, 1
  store i8 %105, ptr %7, align 1, !tbaa !20
  br label %106

106:                                              ; preds = %103, %99
  %107 = load i8, ptr %6, align 1, !tbaa !20
  %108 = zext i8 %107 to i32
  %109 = icmp sge i32 %108, 15
  br i1 %109, label %110, label %113

110:                                              ; preds = %106
  %111 = load i8, ptr %7, align 1, !tbaa !20
  %112 = add i8 %111, 1
  store i8 %112, ptr %7, align 1, !tbaa !20
  br label %113

113:                                              ; preds = %110, %106
  br label %114

114:                                              ; preds = %113, %84
  %115 = load i8, ptr %7, align 1, !tbaa !20
  %116 = zext i8 %115 to i32
  %117 = load i32, ptr %8, align 4, !tbaa !7
  %118 = add i32 %117, %116
  store i32 %118, ptr %8, align 4, !tbaa !7
  %119 = load i8, ptr %5, align 1, !tbaa !20
  %120 = zext i8 %119 to i32
  %121 = and i32 %120, 16
  %122 = icmp ne i32 %121, 0
  br i1 %122, label %123, label %126

123:                                              ; preds = %114
  %124 = load i32, ptr %8, align 4, !tbaa !7
  %125 = sub i32 90, %124
  store i32 %125, ptr %8, align 4, !tbaa !7
  br label %126

126:                                              ; preds = %123, %114
  %127 = load i8, ptr %5, align 1, !tbaa !20
  %128 = zext i8 %127 to i32
  %129 = and i32 %128, 2
  %130 = icmp ne i32 %129, 0
  br i1 %130, label %131, label %143

131:                                              ; preds = %126
  %132 = load i8, ptr %5, align 1, !tbaa !20
  %133 = zext i8 %132 to i32
  %134 = and i32 %133, 1
  %135 = icmp ne i32 %134, 0
  br i1 %135, label %136, label %139

136:                                              ; preds = %131
  %137 = load i32, ptr %8, align 4, !tbaa !7
  %138 = add i32 180, %137
  store i32 %138, ptr %8, align 4, !tbaa !7
  br label %142

139:                                              ; preds = %131
  %140 = load i32, ptr %8, align 4, !tbaa !7
  %141 = sub i32 180, %140
  store i32 %141, ptr %8, align 4, !tbaa !7
  br label %142

142:                                              ; preds = %139, %136
  br label %152

143:                                              ; preds = %126
  %144 = load i8, ptr %5, align 1, !tbaa !20
  %145 = zext i8 %144 to i32
  %146 = and i32 %145, 1
  %147 = icmp ne i32 %146, 0
  br i1 %147, label %148, label %151

148:                                              ; preds = %143
  %149 = load i32, ptr %8, align 4, !tbaa !7
  %150 = sub i32 360, %149
  store i32 %150, ptr %8, align 4, !tbaa !7
  br label %151

151:                                              ; preds = %148, %143
  br label %152

152:                                              ; preds = %151, %142
  %153 = load i32, ptr %8, align 4, !tbaa !7
  %154 = trunc i32 %153 to i16
  call void @llvm.lifetime.end.p0(i64 4, ptr %10) #2
  call void @llvm.lifetime.end.p0(i64 4, ptr %9) #2
  call void @llvm.lifetime.end.p0(i64 4, ptr %8) #2
  call void @llvm.lifetime.end.p0(i64 1, ptr %7) #2
  call void @llvm.lifetime.end.p0(i64 1, ptr %6) #2
  call void @llvm.lifetime.end.p0(i64 1, ptr %5) #2
  ret i16 %154
}