; Function Attrs: mustprogress nofree norecurse nosync nounwind willreturn memory(none) uwtable
define zeroext i16 @lv_atan2(i32 noundef %0, i32 noundef %1) local_unnamed_addr #0 {
  %.lobit = lshr i32 %0, 31
  %spec.select = trunc nuw nsw i32 %.lobit to i8
  %spec.select61 = tail call i32 @llvm.abs.i32(i32 %0, i1 true)
  %3 = icmp slt i32 %1, 0
  %4 = or disjoint i8 %spec.select, 2
  %.150 = select i1 %3, i8 %4, i8 %spec.select
  %.044 = tail call i32 @llvm.abs.i32(i32 %1, i1 true)
  %5 = icmp samesign ugt i32 %spec.select61, %.044
  br i1 %5, label %6, label %10

6:                                                ; preds = %2
  %7 = mul i32 %.044, 45
  %8 = udiv i32 %7, %spec.select61
  %9 = or disjoint i8 %.150, 16
  br label %13

10:                                               ; preds = %2
  %11 = mul i32 %spec.select61, 45
  %12 = udiv i32 %11, %.044
  br label %13

13:                                               ; preds = %10, %6
  %.251 = phi i8 [ %9, %6 ], [ %.150, %10 ]
  %.045 = phi i32 [ %8, %6 ], [ %12, %10 ]
  %14 = and i32 %.045, 255
  %15 = icmp samesign ugt i32 %14, 22
  br i1 %15, label %16, label %21

16:                                               ; preds = %13
  %17 = icmp samesign ult i32 %14, 45
  %spec.select62 = zext i1 %17 to i32
  %18 = icmp samesign ult i32 %14, 42
  %.147 = select i1 %18, i32 2, i32 %spec.select62
  %19 = icmp samesign ult i32 %14, 38
  %20 = icmp samesign ult i32 %14, 33
  br label %26

21:                                               ; preds = %13
  %22 = icmp samesign ugt i32 %14, 1
  %spec.select63 = zext i1 %22 to i32
  %23 = icmp samesign ugt i32 %14, 5
  %.5 = select i1 %23, i32 2, i32 %spec.select63
  %24 = icmp samesign ugt i32 %14, 9
  %25 = icmp samesign ugt i32 %14, 14
  br label %26

26:                                               ; preds = %21, %16
  %.sink69 = phi i1 [ %25, %21 ], [ %20, %16 ]
  %.sink68.in = phi i1 [ %24, %21 ], [ %19, %16 ]
  %.5.sink = phi i32 [ %.5, %21 ], [ %.147, %16 ]
  %.sink68 = zext i1 %.sink68.in to i32
  %27 = zext i1 %.sink69 to i32
  %.6 = add nuw nsw i32 %27, %.sink68
  %spec.select67 = add nuw nsw i32 %.6, %.5.sink
  %28 = add i32 %spec.select67, %.045
  %29 = zext nneg i8 %.251 to i32
  %30 = and i32 %29, 16
  %.not = icmp eq i32 %30, 0
  %31 = sub i32 90, %28
  %spec.select64 = select i1 %.not, i32 %28, i32 %31
  %32 = and i32 %29, 2
  %.not58 = icmp eq i32 %32, 0
  %33 = and i32 %29, 1
  %.not59 = icmp eq i32 %33, 0
  br i1 %.not58, label %39, label %34

34:                                               ; preds = %26
  br i1 %.not59, label %37, label %35

35:                                               ; preds = %34
  %36 = add i32 %spec.select64, 180
  br label %41

37:                                               ; preds = %34
  %38 = sub i32 180, %spec.select64
  br label %41

39:                                               ; preds = %26
  %40 = sub i32 360, %spec.select64
  %spec.select65 = select i1 %.not59, i32 %spec.select64, i32 %40
  br label %41

41:                                               ; preds = %39, %35, %37
  %.2 = phi i32 [ %36, %35 ], [ %38, %37 ], [ %spec.select65, %39 ]
  %42 = trunc i32 %.2 to i16
  ret i16 %42
}